target datalayout = "e-m:e-p270:32:32-p271:32:32-p272:64:64-i64:64-i128:128-f80:128-n8:16:32:64-S128"
target triple = "x86_64-pc-linux-gnu"

%struct._wmem_array_t = type { ptr, ptr, i64, i32, i32, i8 }

; Function Attrs: null_pointer_is_valid sspstrong uwtable
define void @wmem_array_sort(ptr noundef %0, ptr noundef %1) #0 {
  %3 = alloca ptr, align 8
  %4 = alloca ptr, align 8
  store ptr %0, ptr %3, align 8
  store ptr %1, ptr %4, align 8
  %5 = load ptr, ptr %3, align 8
  %6 = getelementptr inbounds nuw %struct._wmem_array_t, ptr %5, i32 0, i32 1
  %7 = load ptr, ptr %6, align 8
  %8 = load ptr, ptr %3, align 8
  %9 = getelementptr inbounds nuw %struct._wmem_array_t, ptr %8, i32 0, i32 3
  %10 = load i32, ptr %9, align 8
  %11 = zext i32 %10 to i64
  %12 = load ptr, ptr %3, align 8
  %13 = getelementptr inbounds nuw %struct._wmem_array_t, ptr %12, i32 0, i32 2
  %14 = load i64, ptr %13, align 8
  %15 = load ptr, ptr %4, align 8
  call void @qsort(ptr noundef %7, i64 noundef %11, i64 noundef %14, ptr noundef %15)
  ret void
}