; Function Attrs: nofree null_pointer_is_valid sspstrong uwtable
define void @wmem_array_sort(ptr noundef readonly captures(none) %0, ptr noundef captures(none) %1) local_unnamed_addr #5 {
  %3 = getelementptr inbounds nuw i8, ptr %0, i64 8
  %4 = load ptr, ptr %3, align 8
  %5 = getelementptr inbounds nuw i8, ptr %0, i64 24
  %6 = load i32, ptr %5, align 8
  %7 = zext i32 %6 to i64
  %8 = getelementptr inbounds nuw i8, ptr %0, i64 16
  %9 = load i64, ptr %8, align 8
  tail call void @qsort(ptr noundef %4, i64 noundef %7, i64 noundef %9, ptr noundef %1)
  ret void
}